target datalayout = "e-m:e-p270:32:32-p271:32:32-p272:64:64-i64:64-i128:128-f80:128-n8:16:32:64-S128"
target triple = "x86_64-pc-linux-gnu"

; Function Attrs: mustprogress nounwind uwtable
define void @_Z18compute_derivativeiPKfS0_Pf(i32 noundef %0, ptr noundef %1, ptr noundef %2, ptr noundef %3) #2 {
  %5 = alloca i32, align 4
  %6 = alloca ptr, align 8
  %7 = alloca ptr, align 8
  %8 = alloca ptr, align 8
  %9 = alloca i32, align 4
  store i32 %0, ptr %5, align 4, !tbaa !195
  store ptr %1, ptr %6, align 8, !tbaa !156
  store ptr %2, ptr %7, align 8, !tbaa !156
  store ptr %3, ptr %8, align 8, !tbaa !156
  call void @llvm.lifetime.start.p0(i64 4, ptr %9) #5
  store i32 1, ptr %9, align 4, !tbaa !195
  br label %10

10:                                               ; preds = %47, %4
  %11 = load i32, ptr %9, align 4, !tbaa !195
  %12 = load i32, ptr %5, align 4, !tbaa !195
  %13 = sub nsw i32 %12, 1
  %14 = icmp slt i32 %11, %13
  br i1 %14, label %15, label %50

15:                                               ; preds = %10
  %16 = load ptr, ptr %7, align 8, !tbaa !156
  %17 = load i32, ptr %9, align 4, !tbaa !195
  %18 = add nsw i32 %17, 1
  %19 = sext i32 %18 to i64
  %20 = getelementptr inbounds float, ptr %16, i64 %19
  %21 = load float, ptr %20, align 4, !tbaa !196
  %22 = load ptr, ptr %7, align 8, !tbaa !156
  %23 = load i32, ptr %9, align 4, !tbaa !195
  %24 = sub nsw i32 %23, 1
  %25 = sext i32 %24 to i64
  %26 = getelementptr inbounds float, ptr %22, i64 %25
  %27 = load float, ptr %26, align 4, !tbaa !196
  %28 = fsub float %21, %27
  %29 = load ptr, ptr %6, align 8, !tbaa !156
  %30 = load i32, ptr %9, align 4, !tbaa !195
  %31 = add nsw i32 %30, 1
  %32 = sext i32 %31 to i64
  %33 = getelementptr inbounds float, ptr %29, i64 %32
  %34 = load float, ptr %33, align 4, !tbaa !196
  %35 = load ptr, ptr %6, align 8, !tbaa !156
  %36 = load i32, ptr %9, align 4, !tbaa !195
  %37 = sub nsw i32 %36, 1
  %38 = sext i32 %37 to i64
  %39 = getelementptr inbounds float, ptr %35, i64 %38
  %40 = load float, ptr %39, align 4, !tbaa !196
  %41 = fsub float %34, %40
  %42 = fdiv float %28, %41
  %43 = load ptr, ptr %8, align 8, !tbaa !156
  %44 = load i32, ptr %9, align 4, !tbaa !195
  %45 = sext i32 %44 to i64
  %46 = getelementptr inbounds float, ptr %43, i64 %45
  store float %42, ptr %46, align 4, !tbaa !196
  br label %47

47:                                               ; preds = %15
  %48 = load i32, ptr %9, align 4, !tbaa !195
  %49 = add nsw i32 %48, 1
  store i32 %49, ptr %9, align 4, !tbaa !195
  br label %10, !llvm.loop !220

50:                                               ; preds = %10
  %51 = load ptr, ptr %8, align 8, !tbaa !156
  %52 = getelementptr inbounds float, ptr %51, i64 1
  %53 = load float, ptr %52, align 4, !tbaa !196
  %54 = load ptr, ptr %8, align 8, !tbaa !156
  %55 = getelementptr inbounds float, ptr %54, i64 2
  %56 = load float, ptr %55, align 4, !tbaa !196
  %57 = fneg float %56
  %58 = call float @llvm.fmuladd.f32(float 2.000000e+00, float %53, float %57)
  %59 = load ptr, ptr %8, align 8, !tbaa !156
  %60 = getelementptr inbounds float, ptr %59, i64 0
  store float %58, ptr %60, align 4, !tbaa !196
  %61 = load ptr, ptr %8, align 8, !tbaa !156
  %62 = load i32, ptr %5, align 4, !tbaa !195
  %63 = sub nsw i32 %62, 2
  %64 = sext i32 %63 to i64
  %65 = getelementptr inbounds float, ptr %61, i64 %64
  %66 = load float, ptr %65, align 4, !tbaa !196
  %67 = load ptr, ptr %8, align 8, !tbaa !156
  %68 = load i32, ptr %5, align 4, !tbaa !195
  %69 = sub nsw i32 %68, 3
  %70 = sext i32 %69 to i64
  %71 = getelementptr inbounds float, ptr %67, i64 %70
  %72 = load float, ptr %71, align 4, !tbaa !196
  %73 = fneg float %72
  %74 = call float @llvm.fmuladd.f32(float 2.000000e+00, float %66, float %73)
  %75 = load ptr, ptr %8, align 8, !tbaa !156
  %76 = load i32, ptr %5, align 4, !tbaa !195
  %77 = sub nsw i32 %76, 1
  %78 = sext i32 %77 to i64
  %79 = getelementptr inbounds float, ptr %75, i64 %78
  store float %74, ptr %79, align 4, !tbaa !196
  call void @llvm.lifetime.end.p0(i64 4, ptr %9) #5
  ret void
}