; Function Attrs: mustprogress nofree norecurse nosync nounwind memory(argmem: readwrite) uwtable
define void @_Z18compute_derivativeiPKfS0_Pf(i32 noundef %0, ptr noundef readonly captures(none) %1, ptr noundef readonly captures(none) %2, ptr noundef captures(none) %3) local_unnamed_addr #17 {
  %5 = add i32 %0, -1
  %6 = icmp sgt i32 %0, 2
  br i1 %6, label %.lr.ph.preheader, label %._crit_edge

.lr.ph.preheader:                                 ; preds = %4
  %wide.trip.count = zext nneg i32 %5 to i64
  br label %.lr.ph

.lr.ph:                                           ; preds = %.lr.ph.preheader, %.lr.ph
  %indvars.iv = phi i64 [ 1, %.lr.ph.preheader ], [ %indvars.iv.next, %.lr.ph ]
  %indvars.iv.next = add nuw nsw i64 %indvars.iv, 1
  %7 = getelementptr inbounds nuw float, ptr %2, i64 %indvars.iv.next
  %8 = load float, ptr %7, align 4, !tbaa !69
  %9 = add nsw i64 %indvars.iv, -1
  %10 = getelementptr inbounds float, ptr %2, i64 %9
  %11 = load float, ptr %10, align 4, !tbaa !69
  %12 = fsub float %8, %11
  %13 = getelementptr inbounds nuw float, ptr %1, i64 %indvars.iv.next
  %14 = load float, ptr %13, align 4, !tbaa !69
  %15 = getelementptr inbounds float, ptr %1, i64 %9
  %16 = load float, ptr %15, align 4, !tbaa !69
  %17 = fsub float %14, %16
  %18 = fdiv float %12, %17
  %19 = getelementptr inbounds nuw float, ptr %3, i64 %indvars.iv
  store float %18, ptr %19, align 4, !tbaa !69
  %exitcond.not = icmp eq i64 %indvars.iv.next, %wide.trip.count
  br i1 %exitcond.not, label %._crit_edge, label %.lr.ph, !llvm.loop !79

._crit_edge:                                      ; preds = %.lr.ph, %4
  %20 = getelementptr inbounds nuw i8, ptr %3, i64 4
  %21 = load float, ptr %20, align 4, !tbaa !69
  %22 = getelementptr inbounds nuw i8, ptr %3, i64 8
  %23 = load float, ptr %22, align 4, !tbaa !69
  %24 = fneg float %23
  %25 = tail call float @llvm.fmuladd.f32(float %21, float 2.000000e+00, float %24)
  store float %25, ptr %3, align 4, !tbaa !69
  %26 = sext i32 %0 to i64
  %27 = getelementptr float, ptr %3, i64 %26
  %28 = getelementptr i8, ptr %27, i64 -8
  %29 = load float, ptr %28, align 4, !tbaa !69
  %30 = getelementptr i8, ptr %27, i64 -12
  %31 = load float, ptr %30, align 4, !tbaa !69
  %32 = fneg float %31
  %33 = tail call float @llvm.fmuladd.f32(float %29, float 2.000000e+00, float %32)
  %34 = sext i32 %5 to i64
  %35 = getelementptr inbounds float, ptr %3, i64 %34
  store float %33, ptr %35, align 4, !tbaa !69
  ret void
}